target datalayout = "e-m:e-p270:32:32-p271:32:32-p272:64:64-i64:64-i128:128-f80:128-n8:16:32:64-S128"
target triple = "x86_64-pc-linux-gnu"

@.str.16 = private unnamed_addr constant [12 x i8] c"proctrack.c\00", align 1
@__func__._test_core_dumping = private unnamed_addr constant [19 x i8] c"_test_core_dumping\00", align 1
@.str.17 = private unnamed_addr constant [16 x i8] c"%s: %s is empty\00", align 1
@.str.18 = private unnamed_addr constant [50 x i8] c"%s: unexpected format of %s (%s) bracket missing?\00", align 1
@.str.19 = private unnamed_addr constant [9 x i8] c"%d (%15c\00", align 1
@.str.20 = private unnamed_addr constant [141 x i8] c"%c %d %d %d %d %d %lu %lu %lu %lu %lu %lu %lu %ld %ld %ld %ld %ld %ld %lu %lu %ld %lu %lu %lu %lu %lu %lu %*s %*s %*s %*s %lu %lu %lu %*d %d\00", align 1
@.str.21 = private unnamed_addr constant [27 x i8] c"/proc entry too short (%s)\00", align 1

; Function Attrs: nounwind uwtable
define internal zeroext i1 @_test_core_dumping(ptr noundef %0) #0 {
  %2 = alloca i1, align 1
  %3 = alloca ptr, align 8
  %4 = alloca i32, align 4
  %5 = alloca i32, align 4
  %6 = alloca i32, align 4
  %7 = alloca i32, align 4
  %8 = alloca i32, align 4
  %9 = alloca i32, align 4
  %10 = alloca [16 x i8], align 16
  %11 = alloca [1 x i8], align 1
  %12 = alloca i64, align 8
  %13 = alloca i64, align 8
  %14 = alloca i64, align 8
  %15 = alloca i64, align 8
  %16 = alloca i64, align 8
  %17 = alloca i64, align 8
  %18 = alloca i64, align 8
  %19 = alloca i64, align 8
  %20 = alloca i64, align 8
  %21 = alloca i64, align 8
  %22 = alloca i64, align 8
  %23 = alloca i64, align 8
  %24 = alloca i64, align 8
  %25 = alloca i64, align 8
  %26 = alloca i64, align 8
  %27 = alloca i64, align 8
  %28 = alloca i64, align 8
  %29 = alloca i64, align 8
  %30 = alloca i64, align 8
  %31 = alloca i64, align 8
  %32 = alloca i64, align 8
  %33 = alloca i64, align 8
  %34 = alloca i64, align 8
  %35 = alloca i64, align 8
  %36 = alloca i64, align 8
  %37 = alloca i32, align 4
  %38 = alloca i32, align 4
  %39 = alloca ptr, align 8
  %40 = alloca ptr, align 8
  %41 = alloca i32, align 4
  %42 = alloca i32, align 4
  %43 = alloca i8, align 1
  %44 = alloca i32, align 4
  store ptr %0, ptr %3, align 8
  call void @llvm.lifetime.start.p0(i64 4, ptr %4) #8
  call void @llvm.lifetime.start.p0(i64 4, ptr %5) #8
  call void @llvm.lifetime.start.p0(i64 4, ptr %6) #8
  call void @llvm.lifetime.start.p0(i64 4, ptr %7) #8
  call void @llvm.lifetime.start.p0(i64 4, ptr %8) #8
  call void @llvm.lifetime.start.p0(i64 4, ptr %9) #8
  call void @llvm.lifetime.start.p0(i64 16, ptr %10) #8
  call void @llvm.lifetime.start.p0(i64 1, ptr %11) #8
  call void @llvm.lifetime.start.p0(i64 8, ptr %12) #8
  call void @llvm.lifetime.start.p0(i64 8, ptr %13) #8
  call void @llvm.lifetime.start.p0(i64 8, ptr %14) #8
  call void @llvm.lifetime.start.p0(i64 8, ptr %15) #8
  call void @llvm.lifetime.start.p0(i64 8, ptr %16) #8
  call void @llvm.lifetime.start.p0(i64 8, ptr %17) #8
  call void @llvm.lifetime.start.p0(i64 8, ptr %18) #8
  call void @llvm.lifetime.start.p0(i64 8, ptr %19) #8
  call void @llvm.lifetime.start.p0(i64 8, ptr %20) #8
  call void @llvm.lifetime.start.p0(i64 8, ptr %21) #8
  call void @llvm.lifetime.start.p0(i64 8, ptr %22) #8
  call void @llvm.lifetime.start.p0(i64 8, ptr %23) #8
  call void @llvm.lifetime.start.p0(i64 8, ptr %24) #8
  call void @llvm.lifetime.start.p0(i64 8, ptr %25) #8
  call void @llvm.lifetime.start.p0(i64 8, ptr %26) #8
  call void @llvm.lifetime.start.p0(i64 8, ptr %27) #8
  call void @llvm.lifetime.start.p0(i64 8, ptr %28) #8
  call void @llvm.lifetime.start.p0(i64 8, ptr %29) #8
  call void @llvm.lifetime.start.p0(i64 8, ptr %30) #8
  call void @llvm.lifetime.start.p0(i64 8, ptr %31) #8
  call void @llvm.lifetime.start.p0(i64 8, ptr %32) #8
  call void @llvm.lifetime.start.p0(i64 8, ptr %33) #8
  call void @llvm.lifetime.start.p0(i64 8, ptr %34) #8
  call void @llvm.lifetime.start.p0(i64 8, ptr %35) #8
  call void @llvm.lifetime.start.p0(i64 8, ptr %36) #8
  call void @llvm.lifetime.start.p0(i64 4, ptr %37) #8
  call void @llvm.lifetime.start.p0(i64 4, ptr %38) #8
  call void @llvm.lifetime.start.p0(i64 8, ptr %39) #8
  call void @llvm.lifetime.start.p0(i64 8, ptr %40) #8
  call void @llvm.lifetime.start.p0(i64 4, ptr %41) #8
  call void @llvm.lifetime.start.p0(i64 4, ptr %42) #8
  store i32 16384, ptr %42, align 4
  call void @llvm.lifetime.start.p0(i64 1, ptr %43) #8
  store i8 0, ptr %43, align 1
  %45 = load ptr, ptr %3, align 8
  %46 = call i32 (ptr, i32, ...) @open(ptr noundef %45, i32 noundef 0, i32 noundef 0)
  store i32 %46, ptr %41, align 4
  %47 = load i32, ptr %41, align 4
  %48 = icmp eq i32 %47, -1
  br i1 %48, label %49, label %50

49:                                               ; preds = %1
  store i1 false, ptr %2, align 1
  store i32 1, ptr %44, align 4
  br label %142

50:                                               ; preds = %1
  %51 = load i32, ptr %42, align 4
  %52 = add nsw i32 %51, 1
  %53 = sext i32 %52 to i64
  %54 = call ptr @slurm_xcalloc(i64 noundef 1, i64 noundef %53, i1 noundef zeroext false, i1 noundef zeroext false, ptr noundef @.str.16, i32 noundef 212, ptr noundef @__func__._test_core_dumping)
  store ptr %54, ptr %40, align 8
  br label %55

55:                                               ; preds = %88, %50
  br label %56

56:                                               ; preds = %55
  %57 = load i32, ptr %41, align 4
  %58 = load ptr, ptr %40, align 8
  %59 = load i32, ptr %42, align 4
  %60 = sext i32 %59 to i64
  %61 = call i64 @read(i32 noundef %57, ptr noundef %58, i64 noundef %60)
  %62 = trunc i64 %61 to i32
  store i32 %62, ptr %38, align 4
  %63 = load i32, ptr %38, align 4
  %64 = icmp sle i32 %63, 0
  br i1 %64, label %65, label %68

65:                                               ; preds = %56
  %66 = load ptr, ptr %40, align 8
  %67 = getelementptr inbounds i8, ptr %66, i64 0
  store i8 0, ptr %67, align 1
  br label %89

68:                                               ; preds = %56
  %69 = load ptr, ptr %40, align 8
  %70 = load i32, ptr %38, align 4
  %71 = sext i32 %70 to i64
  %72 = getelementptr inbounds i8, ptr %69, i64 %71
  store i8 0, ptr %72, align 1
  %73 = load i32, ptr %38, align 4
  %74 = load i32, ptr %42, align 4
  %75 = icmp slt i32 %73, %74
  br i1 %75, label %76, label %77

76:                                               ; preds = %68
  br label %89

77:                                               ; preds = %68
  %78 = load i32, ptr %42, align 4
  %79 = add nsw i32 %78, 16384
  store i32 %79, ptr %42, align 4
  %80 = load i32, ptr %42, align 4
  %81 = add nsw i32 %80, 1
  %82 = sext i32 %81 to i64
  %83 = call ptr @slurm_xrecalloc(ptr noundef %40, i64 noundef 1, i64 noundef %82, i1 noundef zeroext false, i1 noundef zeroext false, ptr noundef @.str.16, i32 noundef 223, ptr noundef @__func__._test_core_dumping)
  %84 = load i32, ptr %41, align 4
  %85 = call i64 @lseek(i32 noundef %84, i64 noundef 0, i32 noundef 0) #8
  %86 = icmp ne i64 %85, 0
  br i1 %86, label %87, label %88

87:                                               ; preds = %77
  br label %89

88:                                               ; preds = %77
  br label %55, !llvm.loop !13

89:                                               ; preds = %87, %76, %65
  %90 = load i32, ptr %41, align 4
  %91 = call i32 @close(i32 noundef %90)
  %92 = load ptr, ptr %40, align 8
  %93 = getelementptr inbounds i8, ptr %92, i64 0
  %94 = load i8, ptr %93, align 1
  %95 = sext i8 %94 to i32
  %96 = icmp eq i32 %95, 0
  br i1 %96, label %97, label %109

97:                                               ; preds = %89
  br label %98

98:                                               ; preds = %97
  br label %99

99:                                               ; preds = %98
  %100 = call i32 @get_log_level()
  %101 = icmp sge i32 %100, 5
  br i1 %101, label %102, label %104

102:                                              ; preds = %99
  %103 = load ptr, ptr %3, align 8
  call void (i32, ptr, ...) @log_var(i32 noundef 5, ptr noundef @.str.17, ptr noundef @__func__._test_core_dumping, ptr noundef %103)
  br label %104

104:                                              ; preds = %102, %99
  br label %105

105:                                              ; preds = %104
  br label %106

106:                                              ; preds = %105
  br label %107

107:                                              ; preds = %106
  br label %108

108:                                              ; preds = %107
  call void @slurm_xfree(ptr noundef %40)
  store i1 false, ptr %2, align 1
  store i32 1, ptr %44, align 4
  br label %142

109:                                              ; preds = %89
  %110 = load ptr, ptr %40, align 8
  %111 = call ptr @strrchr(ptr noundef %110, i32 noundef 41) #11
  store ptr %111, ptr %39, align 8
  %112 = load ptr, ptr %39, align 8
  %113 = icmp eq ptr %112, null
  br i1 %113, label %114, label %118

114:                                              ; preds = %109
  %115 = load ptr, ptr %3, align 8
  %116 = load ptr, ptr %40, align 8
  %117 = call i32 (ptr, ...) @error(ptr noundef @.str.18, ptr noundef @__func__._test_core_dumping, ptr noundef %115, ptr noundef %116)
  call void @slurm_xfree(ptr noundef %40)
  store i1 false, ptr %2, align 1
  store i32 1, ptr %44, align 4
  br label %142

118:                                              ; preds = %109
  %119 = load ptr, ptr %39, align 8
  store i8 0, ptr %119, align 1
  %120 = getelementptr inbounds [16 x i8], ptr %10, i64 0, i64 0
  call void @llvm.memset.p0.i64(ptr align 16 %120, i8 0, i64 16, i1 false)
  %121 = load ptr, ptr %40, align 8
  %122 = getelementptr inbounds [16 x i8], ptr %10, i64 0, i64 0
  %123 = call i32 (ptr, ptr, ...) @__isoc99_sscanf(ptr noundef %121, ptr noundef @.str.19, ptr noundef %4, ptr noundef %122) #8
  %124 = load ptr, ptr %39, align 8
  %125 = getelementptr inbounds i8, ptr %124, i64 2
  %126 = getelementptr inbounds [1 x i8], ptr %11, i64 0, i64 0
  %127 = call i32 (ptr, ptr, ...) @__isoc99_sscanf(ptr noundef %125, ptr noundef @.str.20, ptr noundef %126, ptr noundef %5, ptr noundef %6, ptr noundef %7, ptr noundef %8, ptr noundef %9, ptr noundef %12, ptr noundef %13, ptr noundef %14, ptr noundef %15, ptr noundef %16, ptr noundef %17, ptr noundef %18, ptr noundef %19, ptr noundef %20, ptr noundef %21, ptr noundef %22, ptr noundef %23, ptr noundef %24, ptr noundef %26, ptr noundef %27, ptr noundef %25, ptr noundef %28, ptr noundef %29, ptr noundef %30, ptr noundef %31, ptr noundef %32, ptr noundef %33, ptr noundef %34, ptr noundef %35, ptr noundef %36, ptr noundef %37) #8
  store i32 %127, ptr %38, align 4
  %128 = load i32, ptr %38, align 4
  %129 = icmp slt i32 %128, 13
  br i1 %129, label %130, label %133

130:                                              ; preds = %118
  %131 = load ptr, ptr %40, align 8
  %132 = call i32 (ptr, ...) @error(ptr noundef @.str.21, ptr noundef %131)
  br label %139

133:                                              ; preds = %118
  %134 = load i64, ptr %12, align 8
  %135 = and i64 %134, 512
  %136 = icmp ne i64 %135, 0
  br i1 %136, label %137, label %138

137:                                              ; preds = %133
  store i8 1, ptr %43, align 1
  br label %138

138:                                              ; preds = %137, %133
  br label %139

139:                                              ; preds = %138, %130
  call void @slurm_xfree(ptr noundef %40)
  %140 = load i8, ptr %43, align 1, !range !14, !noundef !15
  %141 = trunc i8 %140 to i1
  store i1 %141, ptr %2, align 1
  store i32 1, ptr %44, align 4
  br label %142

142:                                              ; preds = %139, %114, %108, %49
  call void @llvm.lifetime.end.p0(i64 1, ptr %43) #8
  call void @llvm.lifetime.end.p0(i64 4, ptr %42) #8
  call void @llvm.lifetime.end.p0(i64 4, ptr %41) #8
  call void @llvm.lifetime.end.p0(i64 8, ptr %40) #8
  call void @llvm.lifetime.end.p0(i64 8, ptr %39) #8
  call void @llvm.lifetime.end.p0(i64 4, ptr %38) #8
  call void @llvm.lifetime.end.p0(i64 4, ptr %37) #8
  call void @llvm.lifetime.end.p0(i64 8, ptr %36) #8
  call void @llvm.lifetime.end.p0(i64 8, ptr %35) #8
  call void @llvm.lifetime.end.p0(i64 8, ptr %34) #8
  call void @llvm.lifetime.end.p0(i64 8, ptr %33) #8
  call void @llvm.lifetime.end.p0(i64 8, ptr %32) #8
  call void @llvm.lifetime.end.p0(i64 8, ptr %31) #8
  call void @llvm.lifetime.end.p0(i64 8, ptr %30) #8
  call void @llvm.lifetime.end.p0(i64 8, ptr %29) #8
  call void @llvm.lifetime.end.p0(i64 8, ptr %28) #8
  call void @llvm.lifetime.end.p0(i64 8, ptr %27) #8
  call void @llvm.lifetime.end.p0(i64 8, ptr %26) #8
  call void @llvm.lifetime.end.p0(i64 8, ptr %25) #8
  call void @llvm.lifetime.end.p0(i64 8, ptr %24) #8
  call void @llvm.lifetime.end.p0(i64 8, ptr %23) #8
  call void @llvm.lifetime.end.p0(i64 8, ptr %22) #8
  call void @llvm.lifetime.end.p0(i64 8, ptr %21) #8
  call void @llvm.lifetime.end.p0(i64 8, ptr %20) #8
  call void @llvm.lifetime.end.p0(i64 8, ptr %19) #8
  call void @llvm.lifetime.end.p0(i64 8, ptr %18) #8
  call void @llvm.lifetime.end.p0(i64 8, ptr %17) #8
  call void @llvm.lifetime.end.p0(i64 8, ptr %16) #8
  call void @llvm.lifetime.end.p0(i64 8, ptr %15) #8
  call void @llvm.lifetime.end.p0(i64 8, ptr %14) #8
  call void @llvm.lifetime.end.p0(i64 8, ptr %13) #8
  call void @llvm.lifetime.end.p0(i64 8, ptr %12) #8
  call void @llvm.lifetime.end.p0(i64 1, ptr %11) #8
  call void @llvm.lifetime.end.p0(i64 16, ptr %10) #8
  call void @llvm.lifetime.end.p0(i64 4, ptr %9) #8
  call void @llvm.lifetime.end.p0(i64 4, ptr %8) #8
  call void @llvm.lifetime.end.p0(i64 4, ptr %7) #8
  call void @llvm.lifetime.end.p0(i64 4, ptr %6) #8
  call void @llvm.lifetime.end.p0(i64 4, ptr %5) #8
  call void @llvm.lifetime.end.p0(i64 4, ptr %4) #8
  %143 = load i1, ptr %2, align 1
  ret i1 %143
}