; Function Attrs: nounwind uwtable
define internal fastcc zeroext i1 @_test_core_dumping(ptr noundef %0) unnamed_addr #0 {
  %2 = alloca i32, align 4
  %3 = alloca i32, align 4
  %4 = alloca i32, align 4
  %5 = alloca i32, align 4
  %6 = alloca i32, align 4
  %7 = alloca i32, align 4
  %8 = alloca [16 x i8], align 16
  %9 = alloca [1 x i8], align 1
  %10 = alloca i64, align 8
  %11 = alloca i64, align 8
  %12 = alloca i64, align 8
  %13 = alloca i64, align 8
  %14 = alloca i64, align 8
  %15 = alloca i64, align 8
  %16 = alloca i64, align 8
  %17 = alloca i64, align 8
  %18 = alloca i64, align 8
  %19 = alloca i64, align 8
  %20 = alloca i64, align 8
  %21 = alloca i64, align 8
  %22 = alloca i64, align 8
  %23 = alloca i64, align 8
  %24 = alloca i64, align 8
  %25 = alloca i64, align 8
  %26 = alloca i64, align 8
  %27 = alloca i64, align 8
  %28 = alloca i64, align 8
  %29 = alloca i64, align 8
  %30 = alloca i64, align 8
  %31 = alloca i64, align 8
  %32 = alloca i64, align 8
  %33 = alloca i64, align 8
  %34 = alloca i64, align 8
  %35 = alloca i32, align 4
  %36 = alloca ptr, align 8
  call void @llvm.lifetime.start.p0(i64 4, ptr nonnull %2) #10
  call void @llvm.lifetime.start.p0(i64 4, ptr nonnull %3) #10
  call void @llvm.lifetime.start.p0(i64 4, ptr nonnull %4) #10
  call void @llvm.lifetime.start.p0(i64 4, ptr nonnull %5) #10
  call void @llvm.lifetime.start.p0(i64 4, ptr nonnull %6) #10
  call void @llvm.lifetime.start.p0(i64 4, ptr nonnull %7) #10
  call void @llvm.lifetime.start.p0(i64 16, ptr nonnull %8) #10
  call void @llvm.lifetime.start.p0(i64 1, ptr nonnull %9) #10
  call void @llvm.lifetime.start.p0(i64 8, ptr nonnull %10) #10
  call void @llvm.lifetime.start.p0(i64 8, ptr nonnull %11) #10
  call void @llvm.lifetime.start.p0(i64 8, ptr nonnull %12) #10
  call void @llvm.lifetime.start.p0(i64 8, ptr nonnull %13) #10
  call void @llvm.lifetime.start.p0(i64 8, ptr nonnull %14) #10
  call void @llvm.lifetime.start.p0(i64 8, ptr nonnull %15) #10
  call void @llvm.lifetime.start.p0(i64 8, ptr nonnull %16) #10
  call void @llvm.lifetime.start.p0(i64 8, ptr nonnull %17) #10
  call void @llvm.lifetime.start.p0(i64 8, ptr nonnull %18) #10
  call void @llvm.lifetime.start.p0(i64 8, ptr nonnull %19) #10
  call void @llvm.lifetime.start.p0(i64 8, ptr nonnull %20) #10
  call void @llvm.lifetime.start.p0(i64 8, ptr nonnull %21) #10
  call void @llvm.lifetime.start.p0(i64 8, ptr nonnull %22) #10
  call void @llvm.lifetime.start.p0(i64 8, ptr nonnull %23) #10
  call void @llvm.lifetime.start.p0(i64 8, ptr nonnull %24) #10
  call void @llvm.lifetime.start.p0(i64 8, ptr nonnull %25) #10
  call void @llvm.lifetime.start.p0(i64 8, ptr nonnull %26) #10
  call void @llvm.lifetime.start.p0(i64 8, ptr nonnull %27) #10
  call void @llvm.lifetime.start.p0(i64 8, ptr nonnull %28) #10
  call void @llvm.lifetime.start.p0(i64 8, ptr nonnull %29) #10
  call void @llvm.lifetime.start.p0(i64 8, ptr nonnull %30) #10
  call void @llvm.lifetime.start.p0(i64 8, ptr nonnull %31) #10
  call void @llvm.lifetime.start.p0(i64 8, ptr nonnull %32) #10
  call void @llvm.lifetime.start.p0(i64 8, ptr nonnull %33) #10
  call void @llvm.lifetime.start.p0(i64 8, ptr nonnull %34) #10
  call void @llvm.lifetime.start.p0(i64 4, ptr nonnull %35) #10
  call void @llvm.lifetime.start.p0(i64 8, ptr nonnull %36) #10
  %37 = tail call i32 (ptr, i32, ...) @open(ptr noundef %0, i32 noundef 0, i32 noundef 0) #10
  %38 = icmp eq i32 %37, -1
  br i1 %38, label %82, label %39

39:                                               ; preds = %1
  %40 = tail call ptr @slurm_xcalloc(i64 noundef 1, i64 noundef 16385, i1 noundef zeroext false, i1 noundef zeroext false, ptr noundef nonnull @.str.16, i32 noundef 212, ptr noundef nonnull @__func__._test_core_dumping) #10
  store ptr %40, ptr %36, align 8
  br label %41

41:                                               ; preds = %53, %39
  %indvars.iv = phi i64 [ %indvars.iv.next, %53 ], [ 16384, %39 ]
  %42 = load ptr, ptr %36, align 8
  %43 = call i64 @read(i32 noundef %37, ptr noundef %42, i64 noundef %indvars.iv) #10
  %44 = trunc i64 %43 to i32
  %45 = icmp slt i32 %44, 1
  %46 = load ptr, ptr %36, align 8
  br i1 %45, label %47, label %48

47:                                               ; preds = %41
  store i8 0, ptr %46, align 1
  br label %.loopexit

48:                                               ; preds = %41
  %49 = and i64 %43, 2147483647
  %50 = getelementptr inbounds nuw i8, ptr %46, i64 %49
  store i8 0, ptr %50, align 1
  %51 = and i64 %43, 2147483647
  %52 = icmp samesign ugt i64 %indvars.iv, %51
  br i1 %52, label %.loopexit, label %53

53:                                               ; preds = %48
  %indvars.iv.next = add nuw nsw i64 %indvars.iv, 16384
  %54 = add nuw nsw i64 %indvars.iv, 16385
  %55 = call ptr @slurm_xrecalloc(ptr noundef nonnull %36, i64 noundef 1, i64 noundef %54, i1 noundef zeroext false, i1 noundef zeroext false, ptr noundef nonnull @.str.16, i32 noundef 223, ptr noundef nonnull @__func__._test_core_dumping) #10
  %56 = call i64 @lseek(i32 noundef %37, i64 noundef 0, i32 noundef 0) #10
  %.not = icmp eq i64 %56, 0
  br i1 %.not, label %41, label %.loopexit, !llvm.loop !13

.loopexit:                                        ; preds = %53, %48, %47
  %57 = call i32 @close(i32 noundef %37) #10
  %58 = load ptr, ptr %36, align 8
  %59 = load i8, ptr %58, align 1
  %60 = icmp eq i8 %59, 0
  br i1 %60, label %61, label %65

61:                                               ; preds = %.loopexit
  %62 = call i32 @get_log_level() #10
  %63 = icmp sgt i32 %62, 4
  br i1 %63, label %64, label %.sink.split

64:                                               ; preds = %61
  call void (i32, ptr, ...) @log_var(i32 noundef 5, ptr noundef nonnull @.str.17, ptr noundef nonnull @__func__._test_core_dumping, ptr noundef %0) #10
  br label %.sink.split

65:                                               ; preds = %.loopexit
  %66 = call ptr @strrchr(ptr noundef nonnull dereferenceable(1) %58, i32 noundef 41) #13
  %67 = icmp eq ptr %66, null
  br i1 %67, label %68, label %70

68:                                               ; preds = %65
  %69 = call i32 (ptr, ...) @error(ptr noundef nonnull @.str.18, ptr noundef nonnull @__func__._test_core_dumping, ptr noundef %0, ptr noundef nonnull %58) #10
  br label %.sink.split

70:                                               ; preds = %65
  store i8 0, ptr %66, align 1
  call void @llvm.memset.p0.i64(ptr noundef nonnull align 16 dereferenceable(16) %8, i8 0, i64 16, i1 false)
  %71 = load ptr, ptr %36, align 8
  %72 = call i32 (ptr, ptr, ...) @__isoc99_sscanf(ptr noundef %71, ptr noundef nonnull @.str.19, ptr noundef nonnull %2, ptr noundef nonnull %8) #10
  %73 = getelementptr inbounds nuw i8, ptr %66, i64 2
  %74 = call i32 (ptr, ptr, ...) @__isoc99_sscanf(ptr noundef nonnull %73, ptr noundef nonnull @.str.20, ptr noundef nonnull %9, ptr noundef nonnull %3, ptr noundef nonnull %4, ptr noundef nonnull %5, ptr noundef nonnull %6, ptr noundef nonnull %7, ptr noundef nonnull %10, ptr noundef nonnull %11, ptr noundef nonnull %12, ptr noundef nonnull %13, ptr noundef nonnull %14, ptr noundef nonnull %15, ptr noundef nonnull %16, ptr noundef nonnull %17, ptr noundef nonnull %18, ptr noundef nonnull %19, ptr noundef nonnull %20, ptr noundef nonnull %21, ptr noundef nonnull %22, ptr noundef nonnull %24, ptr noundef nonnull %25, ptr noundef nonnull %23, ptr noundef nonnull %26, ptr noundef nonnull %27, ptr noundef nonnull %28, ptr noundef nonnull %29, ptr noundef nonnull %30, ptr noundef nonnull %31, ptr noundef nonnull %32, ptr noundef nonnull %33, ptr noundef nonnull %34, ptr noundef nonnull %35) #10
  %75 = icmp slt i32 %74, 13
  br i1 %75, label %76, label %79

76:                                               ; preds = %70
  %77 = load ptr, ptr %36, align 8
  %78 = call i32 (ptr, ...) @error(ptr noundef nonnull @.str.21, ptr noundef %77) #10
  br label %.sink.split

79:                                               ; preds = %70
  %80 = load i64, ptr %10, align 8
  %81 = and i64 %80, 512
  %.not25 = icmp ne i64 %81, 0
  br label %.sink.split

.sink.split:                                      ; preds = %76, %79, %61, %64, %68
  %.021.ph = phi i1 [ false, %68 ], [ false, %64 ], [ false, %61 ], [ false, %76 ], [ %.not25, %79 ]
  call void @slurm_xfree(ptr noundef nonnull %36) #10
  br label %82

82:                                               ; preds = %.sink.split, %1
  %.021 = phi i1 [ false, %1 ], [ %.021.ph, %.sink.split ]
  call void @llvm.lifetime.end.p0(i64 8, ptr nonnull %36) #10
  call void @llvm.lifetime.end.p0(i64 4, ptr nonnull %35) #10
  call void @llvm.lifetime.end.p0(i64 8, ptr nonnull %34) #10
  call void @llvm.lifetime.end.p0(i64 8, ptr nonnull %33) #10
  call void @llvm.lifetime.end.p0(i64 8, ptr nonnull %32) #10
  call void @llvm.lifetime.end.p0(i64 8, ptr nonnull %31) #10
  call void @llvm.lifetime.end.p0(i64 8, ptr nonnull %30) #10
  call void @llvm.lifetime.end.p0(i64 8, ptr nonnull %29) #10
  call void @llvm.lifetime.end.p0(i64 8, ptr nonnull %28) #10
  call void @llvm.lifetime.end.p0(i64 8, ptr nonnull %27) #10
  call void @llvm.lifetime.end.p0(i64 8, ptr nonnull %26) #10
  call void @llvm.lifetime.end.p0(i64 8, ptr nonnull %25) #10
  call void @llvm.lifetime.end.p0(i64 8, ptr nonnull %24) #10
  call void @llvm.lifetime.end.p0(i64 8, ptr nonnull %23) #10
  call void @llvm.lifetime.end.p0(i64 8, ptr nonnull %22) #10
  call void @llvm.lifetime.end.p0(i64 8, ptr nonnull %21) #10
  call void @llvm.lifetime.end.p0(i64 8, ptr nonnull %20) #10
  call void @llvm.lifetime.end.p0(i64 8, ptr nonnull %19) #10
  call void @llvm.lifetime.end.p0(i64 8, ptr nonnull %18) #10
  call void @llvm.lifetime.end.p0(i64 8, ptr nonnull %17) #10
  call void @llvm.lifetime.end.p0(i64 8, ptr nonnull %16) #10
  call void @llvm.lifetime.end.p0(i64 8, ptr nonnull %15) #10
  call void @llvm.lifetime.end.p0(i64 8, ptr nonnull %14) #10
  call void @llvm.lifetime.end.p0(i64 8, ptr nonnull %13) #10
  call void @llvm.lifetime.end.p0(i64 8, ptr nonnull %12) #10
  call void @llvm.lifetime.end.p0(i64 8, ptr nonnull %11) #10
  call void @llvm.lifetime.end.p0(i64 8, ptr nonnull %10) #10
  call void @llvm.lifetime.end.p0(i64 1, ptr nonnull %9) #10
  call void @llvm.lifetime.end.p0(i64 16, ptr nonnull %8) #10
  call void @llvm.lifetime.end.p0(i64 4, ptr nonnull %7) #10
  call void @llvm.lifetime.end.p0(i64 4, ptr nonnull %6) #10
  call void @llvm.lifetime.end.p0(i64 4, ptr nonnull %5) #10
  call void @llvm.lifetime.end.p0(i64 4, ptr nonnull %4) #10
  call void @llvm.lifetime.end.p0(i64 4, ptr nonnull %3) #10
  call void @llvm.lifetime.end.p0(i64 4, ptr nonnull %2) #10
  ret i1 %.021
}